target datalayout = "e-m:e-p270:32:32-p271:32:32-p272:64:64-i64:64-i128:128-f80:128-n8:16:32:64-S128"
target triple = "x86_64-pc-linux-gnu"

@sanitize_str.buf = internal global [31 x i8] zeroinitializer, align 16

; Function Attrs: nounwind uwtable
define internal ptr @sanitize_str(ptr noundef %0) #0 {
  %2 = alloca ptr, align 8
  %3 = alloca i32, align 4
  %4 = alloca i8, align 1
  %5 = alloca i32, align 4
  store ptr %0, ptr %2, align 8
  call void @llvm.lifetime.start.p0(i64 4, ptr %3) #9
  store i32 0, ptr %3, align 4
  br label %6

6:                                                ; preds = %41, %1
  %7 = load i32, ptr %3, align 4
  %8 = sext i32 %7 to i64
  %9 = icmp ult i64 %8, 30
  br i1 %9, label %10, label %44

10:                                               ; preds = %6
  call void @llvm.lifetime.start.p0(i64 1, ptr %4) #9
  %11 = load ptr, ptr %2, align 8
  %12 = load i32, ptr %3, align 4
  %13 = sext i32 %12 to i64
  %14 = getelementptr inbounds i8, ptr %11, i64 %13
  %15 = load i8, ptr %14, align 1
  store i8 %15, ptr %4, align 1
  %16 = load i8, ptr %4, align 1
  %17 = sext i8 %16 to i32
  %18 = icmp eq i32 %17, 0
  br i1 %18, label %19, label %20

19:                                               ; preds = %10
  store i32 2, ptr %5, align 4
  br label %38

20:                                               ; preds = %10
  %21 = load i8, ptr %4, align 1
  %22 = sext i8 %21 to i32
  %23 = icmp sge i32 %22, 33
  br i1 %23, label %24, label %33

24:                                               ; preds = %20
  %25 = load i8, ptr %4, align 1
  %26 = sext i8 %25 to i32
  %27 = icmp sle i32 %26, 126
  br i1 %27, label %28, label %33

28:                                               ; preds = %24
  %29 = load i8, ptr %4, align 1
  %30 = load i32, ptr %3, align 4
  %31 = sext i32 %30 to i64
  %32 = getelementptr inbounds [31 x i8], ptr @sanitize_str.buf, i64 0, i64 %31
  store i8 %29, ptr %32, align 1
  br label %37

33:                                               ; preds = %24, %20
  %34 = load i32, ptr %3, align 4
  %35 = sext i32 %34 to i64
  %36 = getelementptr inbounds [31 x i8], ptr @sanitize_str.buf, i64 0, i64 %35
  store i8 63, ptr %36, align 1
  br label %37

37:                                               ; preds = %33, %28
  store i32 0, ptr %5, align 4
  br label %38

38:                                               ; preds = %37, %19
  call void @llvm.lifetime.end.p0(i64 1, ptr %4) #9
  %39 = load i32, ptr %5, align 4
  switch i32 %39, label %48 [
    i32 0, label %40
    i32 2, label %44
  ]

40:                                               ; preds = %38
  br label %41

41:                                               ; preds = %40
  %42 = load i32, ptr %3, align 4
  %43 = add i32 %42, 1
  store i32 %43, ptr %3, align 4
  br label %6, !llvm.loop !11

44:                                               ; preds = %38, %6
  %45 = load i32, ptr %3, align 4
  %46 = sext i32 %45 to i64
  %47 = getelementptr inbounds [31 x i8], ptr @sanitize_str.buf, i64 0, i64 %46
  store i8 0, ptr %47, align 1
  store i32 1, ptr %5, align 4
  call void @llvm.lifetime.end.p0(i64 4, ptr %3) #9
  ret ptr @sanitize_str.buf

48:                                               ; preds = %38
  unreachable
}