; Function Attrs: nofree norecurse nosync nounwind memory(write, argmem: read, inaccessiblemem: none) uwtable
define internal fastcc void @sanitize_str(ptr noundef readonly captures(none) %0) unnamed_addr #10 {
  br label %2

2:                                                ; preds = %1, %6
  %indvars.iv = phi i64 [ 0, %1 ], [ %indvars.iv.next, %6 ]
  %3 = getelementptr inbounds nuw i8, ptr %0, i64 %indvars.iv
  %4 = load i8, ptr %3, align 1
  %5 = icmp eq i8 %4, 0
  br i1 %5, label %9, label %6

6:                                                ; preds = %2
  %7 = add i8 %4, -33
  %or.cond = icmp ult i8 %7, 94
  %spec.select = select i1 %or.cond, i8 %4, i8 63
  %8 = getelementptr inbounds nuw [31 x i8], ptr @sanitize_str.buf, i64 0, i64 %indvars.iv
  store i8 %spec.select, ptr %8, align 1
  %indvars.iv.next = add nuw nsw i64 %indvars.iv, 1
  %exitcond.not = icmp eq i64 %indvars.iv.next, 30
  br i1 %exitcond.not, label %9, label %2, !llvm.loop !12

9:                                                ; preds = %2, %6
  %.lcssa = phi i64 [ %indvars.iv, %2 ], [ 30, %6 ]
  %10 = getelementptr inbounds nuw [31 x i8], ptr @sanitize_str.buf, i64 0, i64 %.lcssa
  store i8 0, ptr %10, align 1
  ret void
}